; Function Attrs: nounwind sspstrong uwtable
define dso_local void @virtio_error(ptr noundef %vdev, ptr noundef %fmt, ...) local_unnamed_addr #0 {
entry:
  %ap = alloca [1 x %struct.__va_list_tag], align 16
  call void @llvm.va_start.p0(ptr nonnull %ap)
  call void @error_vreport(ptr noundef %fmt, ptr noundef nonnull %ap) #23
  call void @llvm.va_end.p0(ptr nonnull %ap)
  %0 = getelementptr i8, ptr %vdev, i64 184
  %vdev.val = load i64, ptr %0, align 8
  %and.i.i = and i64 %vdev.val, 4294967296
  %tobool.i.i.not = icmp eq i64 %and.i.i, 0
  br i1 %tobool.i.i.not, label %if.end, label %if.then

if.then:                                          ; preds = %entry
  %status = getelementptr inbounds nuw i8, ptr %vdev, i64 168
  %1 = load i8, ptr %status, align 8
  %2 = or i8 %1, 64
  store i8 %2, ptr %status, align 8
  call void @virtio_notify_config(ptr noundef nonnull %vdev)
  br label %if.end

if.end:                                           ; preds = %if.then, %entry
  %broken = getelementptr inbounds nuw i8, ptr %vdev, i64 435
  store i8 1, ptr %broken, align 1
  ret void
}